; Function Attrs: mustprogress nofree norecurse nosync nounwind sspstrong willreturn memory(read, inaccessiblemem: none) uwtable
define dso_local range(i64 1, 0) i64 @rb_struct_size(i64 noundef %0) #10 {
  %2 = inttoptr i64 %0 to ptr
  %3 = load i64, ptr %2, align 8, !tbaa !11
  %4 = and i64 %3, 1040384
  %.not.i = icmp eq i64 %4, 0
  br i1 %.not.i, label %8, label %5

5:                                                ; preds = %1
  %6 = lshr i64 %3, 13
  %7 = and i64 %6, 127
  br label %internal_RSTRUCT_LEN.exit

8:                                                ; preds = %1
  %9 = getelementptr inbounds nuw i8, ptr %2, i64 16
  %10 = load i64, ptr %9, align 8, !tbaa !13
  br label %internal_RSTRUCT_LEN.exit

internal_RSTRUCT_LEN.exit:                        ; preds = %5, %8
  %.0.i = phi i64 [ %7, %5 ], [ %10, %8 ]
  %11 = shl i64 %.0.i, 1
  %12 = or disjoint i64 %11, 1
  ret i64 %12
}